target datalayout = "e-m:e-p270:32:32-p271:32:32-p272:64:64-i64:64-i128:128-f80:128-n8:16:32:64-S128"
target triple = "x86_64-pc-linux-gnu"

%"class.vcg::Point3" = type { [3 x float] }
%"class.vcg::Point2" = type { [2 x float] }

; Function Attrs: mustprogress nounwind uwtable
define linkonce_odr void @_ZN3vcg6Point2IfEC2Eff(ptr noundef nonnull align 4 dereferenceable(8) %0, float noundef %1, float noundef %2) unnamed_addr #4 comdat align 2 {
  %4 = alloca ptr, align 8
  %5 = alloca float, align 4
  %6 = alloca float, align 4
  store ptr %0, ptr %4, align 8
  store float %1, ptr %5, align 4
  store float %2, ptr %6, align 4
  %7 = load ptr, ptr %4, align 8
  %8 = load float, ptr %5, align 4
  %9 = getelementptr inbounds %"class.vcg::Point2", ptr %7, i32 0, i32 0
  %10 = getelementptr inbounds [2 x float], ptr %9, i64 0, i64 0
  store float %8, ptr %10, align 4
  %11 = load float, ptr %6, align 4
  %12 = getelementptr inbounds %"class.vcg::Point2", ptr %7, i32 0, i32 0
  %13 = getelementptr inbounds [2 x float], ptr %12, i64 0, i64 1
  store float %11, ptr %13, align 4
  ret void
}

; Function Attrs: mustprogress nounwind uwtable
define linkonce_odr noundef nonnull align 4 dereferenceable(4) ptr @_ZNK3vcg6Point3IfEixEi(ptr noundef nonnull align 4 dereferenceable(12) %0, i32 noundef %1) #4 comdat align 2 {
  %3 = alloca ptr, align 8
  %4 = alloca i32, align 4
  store ptr %0, ptr %3, align 8
  store i32 %1, ptr %4, align 4
  %5 = load ptr, ptr %3, align 8
  %6 = getelementptr inbounds %"class.vcg::Point3", ptr %5, i32 0, i32 0
  %7 = load i32, ptr %4, align 4
  %8 = sext i32 %7 to i64
  %9 = getelementptr inbounds [3 x float], ptr %6, i64 0, i64 %8
  ret ptr %9
}

; Function Attrs: mustprogress uwtable
define <2 x float> @_ZN3vcg10Rubberband18DevicePixelConvertENS_6Point3IfEE(ptr noundef nonnull align 8 dereferenceable(49) %0, <2 x float> %1, float %2) #8 align 2 {
  %4 = alloca %"class.vcg::Point2", align 4
  %5 = alloca %"class.vcg::Point3", align 4
  %6 = alloca { <2 x float>, float }, align 4
  %7 = alloca ptr, align 8
  %8 = alloca [4 x i32], align 16
  %9 = alloca [16 x double], align 16
  %10 = alloca [16 x double], align 16
  %11 = alloca double, align 8
  %12 = alloca double, align 8
  %13 = alloca double, align 8
  %14 = getelementptr inbounds { <2 x float>, float }, ptr %6, i32 0, i32 0
  store <2 x float> %1, ptr %14, align 4
  %15 = getelementptr inbounds { <2 x float>, float }, ptr %6, i32 0, i32 1
  store float %2, ptr %15, align 4
  call void @llvm.memcpy.p0.p0.i64(ptr align 4 %5, ptr align 4 %6, i64 12, i1 false)
  store ptr %0, ptr %7, align 8
  %16 = getelementptr inbounds [4 x i32], ptr %8, i64 0, i64 0
  call void @glGetIntegerv(i32 noundef 2978, ptr noundef %16)
  %17 = getelementptr inbounds [16 x double], ptr %9, i64 0, i64 0
  call void @glGetDoublev(i32 noundef 2982, ptr noundef %17)
  %18 = getelementptr inbounds [16 x double], ptr %10, i64 0, i64 0
  call void @glGetDoublev(i32 noundef 2983, ptr noundef %18)
  %19 = call noundef nonnull align 4 dereferenceable(4) ptr @_ZNK3vcg6Point3IfEixEi(ptr noundef nonnull align 4 dereferenceable(12) %5, i32 noundef 0)
  %20 = load float, ptr %19, align 4
  %21 = fpext float %20 to double
  %22 = call noundef nonnull align 4 dereferenceable(4) ptr @_ZNK3vcg6Point3IfEixEi(ptr noundef nonnull align 4 dereferenceable(12) %5, i32 noundef 1)
  %23 = load float, ptr %22, align 4
  %24 = fpext float %23 to double
  %25 = call noundef nonnull align 4 dereferenceable(4) ptr @_ZNK3vcg6Point3IfEixEi(ptr noundef nonnull align 4 dereferenceable(12) %5, i32 noundef 2)
  %26 = load float, ptr %25, align 4
  %27 = fpext float %26 to double
  %28 = getelementptr inbounds [16 x double], ptr %9, i64 0, i64 0
  %29 = getelementptr inbounds [16 x double], ptr %10, i64 0, i64 0
  %30 = getelementptr inbounds [4 x i32], ptr %8, i64 0, i64 0
  %31 = call i32 @gluProject(double noundef %21, double noundef %24, double noundef %27, ptr noundef %28, ptr noundef %29, ptr noundef %30, ptr noundef %11, ptr noundef %12, ptr noundef %13)
  %32 = load double, ptr %11, align 8
  %33 = fptrunc double %32 to float
  %34 = getelementptr inbounds [4 x i32], ptr %8, i64 0, i64 3
  %35 = load i32, ptr %34, align 4
  %36 = sitofp i32 %35 to double
  %37 = load double, ptr %12, align 8
  %38 = fsub double %36, %37
  %39 = fptrunc double %38 to float
  call void @_ZN3vcg6Point2IfEC2Eff(ptr noundef nonnull align 4 dereferenceable(8) %4, float noundef %33, float noundef %39)
  %40 = getelementptr inbounds %"class.vcg::Point2", ptr %4, i32 0, i32 0
  %41 = load <2 x float>, ptr %40, align 4
  ret <2 x float> %41
}