; Function Attrs: mustprogress uwtable
define <2 x float> @_ZN3vcg10Rubberband18DevicePixelConvertENS_6Point3IfEE(ptr nocapture noundef nonnull readnone align 8 dereferenceable(49) %0, <2 x float> %1, float %2) local_unnamed_addr #7 align 2 {
  %4 = alloca [4 x i32], align 16
  %5 = alloca [16 x double], align 16
  %6 = alloca [16 x double], align 16
  %7 = alloca double, align 8
  %8 = alloca double, align 8
  %9 = alloca double, align 8
  call void @glGetIntegerv(i32 noundef 2978, ptr noundef nonnull %4)
  call void @glGetDoublev(i32 noundef 2982, ptr noundef nonnull %5)
  call void @glGetDoublev(i32 noundef 2983, ptr noundef nonnull %6)
  %.sroa.0.0.vec.extract = extractelement <2 x float> %1, i64 0
  %10 = fpext float %.sroa.0.0.vec.extract to double
  %.sroa.0.4.vec.extract = extractelement <2 x float> %1, i64 1
  %11 = fpext float %.sroa.0.4.vec.extract to double
  %12 = fpext float %2 to double
  %13 = call i32 @gluProject(double noundef %10, double noundef %11, double noundef %12, ptr noundef nonnull %5, ptr noundef nonnull %6, ptr noundef nonnull %4, ptr noundef nonnull %7, ptr noundef nonnull %8, ptr noundef nonnull %9)
  %14 = load double, ptr %7, align 8
  %15 = getelementptr inbounds i8, ptr %4, i64 12
  %16 = load i32, ptr %15, align 4
  %17 = sitofp i32 %16 to double
  %18 = load double, ptr %8, align 8
  %19 = fsub double %17, %18
  %20 = insertelement <2 x double> poison, double %14, i64 0
  %21 = insertelement <2 x double> %20, double %19, i64 1
  %22 = fptrunc <2 x double> %21 to <2 x float>
  ret <2 x float> %22
}